
key_filter.elf:     file format elf32-littlearm


Disassembly of section .text:

87800000 <_start>:
87800000:	e59ff100 	ldr	pc, [pc, #256]	; 87800108 <FIQ_Handler+0x8>
87800004:	e59ff100 	ldr	pc, [pc, #256]	; 8780010c <FIQ_Handler+0xc>
87800008:	e59ff100 	ldr	pc, [pc, #256]	; 87800110 <FIQ_Handler+0x10>
8780000c:	e59ff100 	ldr	pc, [pc, #256]	; 87800114 <FIQ_Handler+0x14>
87800010:	e59ff100 	ldr	pc, [pc, #256]	; 87800118 <FIQ_Handler+0x18>
87800014:	e59ff100 	ldr	pc, [pc, #256]	; 8780011c <FIQ_Handler+0x1c>
87800018:	e59ff100 	ldr	pc, [pc, #256]	; 87800120 <FIQ_Handler+0x20>
8780001c:	e59ff100 	ldr	pc, [pc, #256]	; 87800124 <FIQ_Handler+0x24>

87800020 <Reset_Handler>:
87800020:	f10c0080 	cpsid	i
87800024:	ee110f10 	mrc	15, 0, r0, cr1, cr0, {0}
87800028:	e3c00a01 	bic	r0, r0, #4096	; 0x1000
8780002c:	e3c00004 	bic	r0, r0, #4
87800030:	e3c00002 	bic	r0, r0, #2
87800034:	e3c00b02 	bic	r0, r0, #2048	; 0x800
87800038:	e3c00001 	bic	r0, r0, #1
8780003c:	ee010f10 	mcr	15, 0, r0, cr1, cr0, {0}
87800040:	e10f0000 	mrs	r0, CPSR
87800044:	e3c0001f 	bic	r0, r0, #31
87800048:	e3800012 	orr	r0, r0, #18
8780004c:	e129f000 	msr	CPSR_fc, r0
87800050:	e59fd0d0 	ldr	sp, [pc, #208]	; 87800128 <FIQ_Handler+0x28>
87800054:	e10f0000 	mrs	r0, CPSR
87800058:	e3c0001f 	bic	r0, r0, #31
8780005c:	e380001f 	orr	r0, r0, #31
87800060:	e129f000 	msr	CPSR_fc, r0
87800064:	e59fd0c0 	ldr	sp, [pc, #192]	; 8780012c <FIQ_Handler+0x2c>
87800068:	e10f0000 	mrs	r0, CPSR
8780006c:	e3c0001f 	bic	r0, r0, #31
87800070:	e3800013 	orr	r0, r0, #19
87800074:	e129f000 	msr	CPSR_fc, r0
87800078:	e59fd0b0 	ldr	sp, [pc, #176]	; 87800130 <FIQ_Handler+0x30>
8780007c:	f1080080 	cpsie	i
87800080:	ea000204 	b	87800898 <__main_from_arm>

87800084 <Undefined_Handler>:
87800084:	e59f0080 	ldr	r0, [pc, #128]	; 8780010c <FIQ_Handler+0xc>
87800088:	e12fff10 	bx	r0

8780008c <SVC_Handler>:
8780008c:	e59f007c 	ldr	r0, [pc, #124]	; 87800110 <FIQ_Handler+0x10>
87800090:	e12fff10 	bx	r0

87800094 <PrefAbort_Handler>:
87800094:	e59f0078 	ldr	r0, [pc, #120]	; 87800114 <FIQ_Handler+0x14>
87800098:	e12fff10 	bx	r0

8780009c <DataAbort_Handler>:
8780009c:	e59f0074 	ldr	r0, [pc, #116]	; 87800118 <FIQ_Handler+0x18>
878000a0:	e12fff10 	bx	r0

878000a4 <NotUsed_Handler>:
878000a4:	e59f0070 	ldr	r0, [pc, #112]	; 8780011c <FIQ_Handler+0x1c>
878000a8:	e12fff10 	bx	r0

878000ac <IRQ_Handler>:
878000ac:	e52de004 	push	{lr}		; (str lr, [sp, #-4]!)
878000b0:	e92d100f 	push	{r0, r1, r2, r3, ip}
878000b4:	e14f0000 	mrs	r0, SPSR
878000b8:	e52d0004 	push	{r0}		; (str r0, [sp, #-4]!)
878000bc:	ee9f1f10 	mrc	15, 4, r1, cr15, cr0, {0}
878000c0:	e2811a02 	add	r1, r1, #8192	; 0x2000
878000c4:	e591000c 	ldr	r0, [r1, #12]
878000c8:	e92d0003 	push	{r0, r1}
878000cc:	f1020013 	cps	#19
878000d0:	e52de004 	push	{lr}		; (str lr, [sp, #-4]!)
878000d4:	e59f2058 	ldr	r2, [pc, #88]	; 87800134 <FIQ_Handler+0x34>
878000d8:	e12fff32 	blx	r2
878000dc:	e49de004 	pop	{lr}		; (ldr lr, [sp], #4)
878000e0:	f1020012 	cps	#18
878000e4:	e8bd0003 	pop	{r0, r1}
878000e8:	e5810010 	str	r0, [r1, #16]
878000ec:	e49d0004 	pop	{r0}		; (ldr r0, [sp], #4)
878000f0:	e16ff000 	msr	SPSR_fsxc, r0
878000f4:	e8bd100f 	pop	{r0, r1, r2, r3, ip}
878000f8:	e49de004 	pop	{lr}		; (ldr lr, [sp], #4)
878000fc:	e25ef004 	subs	pc, lr, #4

87800100 <FIQ_Handler>:
87800100:	e59f001c 	ldr	r0, [pc, #28]	; 87800124 <FIQ_Handler+0x24>
87800104:	e12fff10 	bx	r0
87800108:	87800020 	strhi	r0, [r0, r0, lsr #32]
8780010c:	87800084 	strhi	r0, [r0, r4, lsl #1]
87800110:	8780008c 	strhi	r0, [r0, ip, lsl #1]
87800114:	87800094 			; <UNDEFINED> instruction: 0x87800094
87800118:	8780009c 			; <UNDEFINED> instruction: 0x8780009c
8780011c:	878000a4 	strhi	r0, [r0, r4, lsr #1]
87800120:	878000ac 	strhi	r0, [r0, ip, lsr #1]
87800124:	87800100 	strhi	r0, [r0, r0, lsl #2]
87800128:	80600000 	rsbhi	r0, r0, r0
8780012c:	80400000 	subhi	r0, r0, r0
87800130:	80200000 	eorhi	r0, r0, r0
87800134:	878005fd 			; <UNDEFINED> instruction: 0x878005fd
87800138:	00001e41 	andeq	r1, r0, r1, asr #28
8780013c:	61656100 	cmnvs	r5, r0, lsl #2
87800140:	01006962 	tsteq	r0, r2, ror #18
87800144:	00000014 	andeq	r0, r0, r4, lsl r0
87800148:	412d3705 	teqmi	sp, r5, lsl #14
8780014c:	070a0600 	streq	r0, [sl, -r0, lsl #12]
87800150:	09010841 	stmdbeq	r1, {r0, r6, fp}
87800154:	00040a02 	andeq	r0, r4, r2, lsl #20

87800158 <clk_enable>:
87800158:	f44f 4380 	mov.w	r3, #16384	; 0x4000
8780015c:	f04f 32ff 	mov.w	r2, #4294967295	; 0xffffffff
87800160:	f2c0 230c 	movt	r3, #524	; 0x20c
87800164:	669a      	str	r2, [r3, #104]	; 0x68
87800166:	66da      	str	r2, [r3, #108]	; 0x6c
87800168:	671a      	str	r2, [r3, #112]	; 0x70
8780016a:	675a      	str	r2, [r3, #116]	; 0x74
8780016c:	679a      	str	r2, [r3, #120]	; 0x78
8780016e:	67da      	str	r2, [r3, #124]	; 0x7c
87800170:	f8c3 2080 	str.w	r2, [r3, #128]	; 0x80
87800174:	4770      	bx	lr
87800176:	bf00      	nop

87800178 <clk_init>:
87800178:	f44f 4380 	mov.w	r3, #16384	; 0x4000
8780017c:	b470      	push	{r4, r5, r6}
8780017e:	f2c0 230c 	movt	r3, #524	; 0x20c
87800182:	68da      	ldr	r2, [r3, #12]
87800184:	0752      	lsls	r2, r2, #29
87800186:	d407      	bmi.n	87800198 <clk_init+0x20>
87800188:	68da      	ldr	r2, [r3, #12]
8780018a:	f422 7280 	bic.w	r2, r2, #256	; 0x100
8780018e:	60da      	str	r2, [r3, #12]
87800190:	68da      	ldr	r2, [r3, #12]
87800192:	f042 0204 	orr.w	r2, r2, #4
87800196:	60da      	str	r2, [r3, #12]
87800198:	f44f 4100 	mov.w	r1, #32768	; 0x8000
8780019c:	f44f 4380 	mov.w	r3, #16384	; 0x4000
878001a0:	f2c0 230c 	movt	r3, #524	; 0x20c
878001a4:	f2c0 210c 	movt	r1, #524	; 0x20c
878001a8:	f242 0258 	movw	r2, #8280	; 0x2058
878001ac:	2601      	movs	r6, #1
878001ae:	600a      	str	r2, [r1, #0]
878001b0:	f241 041b 	movw	r4, #4123	; 0x101b
878001b4:	68dd      	ldr	r5, [r3, #12]
878001b6:	f2c2 0418 	movt	r4, #8216	; 0x2018
878001ba:	f241 000c 	movw	r0, #4108	; 0x100c
878001be:	461a      	mov	r2, r3
878001c0:	f2c1 3011 	movt	r0, #4881	; 0x1311
878001c4:	f025 0504 	bic.w	r5, r5, #4
878001c8:	60dd      	str	r5, [r3, #12]
878001ca:	611e      	str	r6, [r3, #16]
878001cc:	f8d1 5100 	ldr.w	r5, [r1, #256]	; 0x100
878001d0:	f005 35c0 	and.w	r5, r5, #3233857728	; 0xc0c0c0c0
878001d4:	432c      	orrs	r4, r5
878001d6:	f8c1 4100 	str.w	r4, [r1, #256]	; 0x100
878001da:	f8d1 40f0 	ldr.w	r4, [r1, #240]	; 0xf0
878001de:	f004 34c0 	and.w	r4, r4, #3233857728	; 0xc0c0c0c0
878001e2:	4320      	orrs	r0, r4
878001e4:	f8c1 00f0 	str.w	r0, [r1, #240]	; 0xf0
878001e8:	6999      	ldr	r1, [r3, #24]
878001ea:	f421 2140 	bic.w	r1, r1, #786432	; 0xc0000
878001ee:	6199      	str	r1, [r3, #24]
878001f0:	6999      	ldr	r1, [r3, #24]
878001f2:	f441 2180 	orr.w	r1, r1, #262144	; 0x40000
878001f6:	6199      	str	r1, [r3, #24]
878001f8:	6959      	ldr	r1, [r3, #20]
878001fa:	f021 7100 	bic.w	r1, r1, #33554432	; 0x2000000
878001fe:	6159      	str	r1, [r3, #20]
87800200:	6c93      	ldr	r3, [r2, #72]	; 0x48
87800202:	069b      	lsls	r3, r3, #26
87800204:	d4fc      	bmi.n	87800200 <clk_init+0x88>
87800206:	bc70      	pop	{r4, r5, r6}
87800208:	4770      	bx	lr
8780020a:	bf00      	nop

8780020c <led_init>:
8780020c:	2168      	movs	r1, #104	; 0x68
8780020e:	f44f 723d 	mov.w	r2, #756	; 0x2f4
87800212:	f44f 4340 	mov.w	r3, #49152	; 0xc000
87800216:	b410      	push	{r4}
87800218:	f2c0 2309 	movt	r3, #521	; 0x209
8780021c:	2405      	movs	r4, #5
8780021e:	f2c0 220e 	movt	r2, #526	; 0x20e
87800222:	f2c0 210e 	movt	r1, #526	; 0x20e
87800226:	f241 00b0 	movw	r0, #4272	; 0x10b0
8780022a:	600c      	str	r4, [r1, #0]
8780022c:	6010      	str	r0, [r2, #0]
8780022e:	685a      	ldr	r2, [r3, #4]
87800230:	f85d 4b04 	ldr.w	r4, [sp], #4
87800234:	f042 0208 	orr.w	r2, r2, #8
87800238:	605a      	str	r2, [r3, #4]
8780023a:	681a      	ldr	r2, [r3, #0]
8780023c:	f022 0208 	bic.w	r2, r2, #8
87800240:	601a      	str	r2, [r3, #0]
87800242:	4770      	bx	lr

87800244 <led_switch>:
87800244:	b950      	cbnz	r0, 8780025c <led_switch+0x18>
87800246:	2901      	cmp	r1, #1
87800248:	d009      	beq.n	8780025e <led_switch+0x1a>
8780024a:	b939      	cbnz	r1, 8780025c <led_switch+0x18>
8780024c:	f44f 4340 	mov.w	r3, #49152	; 0xc000
87800250:	f2c0 2309 	movt	r3, #521	; 0x209
87800254:	681a      	ldr	r2, [r3, #0]
87800256:	f042 0208 	orr.w	r2, r2, #8
8780025a:	601a      	str	r2, [r3, #0]
8780025c:	4770      	bx	lr
8780025e:	f44f 4340 	mov.w	r3, #49152	; 0xc000
87800262:	f2c0 2309 	movt	r3, #521	; 0x209
87800266:	681a      	ldr	r2, [r3, #0]
87800268:	f022 0208 	bic.w	r2, r2, #8
8780026c:	601a      	str	r2, [r3, #0]
8780026e:	4770      	bx	lr

87800270 <delay_init>:
87800270:	f44f 4300 	mov.w	r3, #32768	; 0x8000
87800274:	2000      	movs	r0, #0
87800276:	f2c0 2309 	movt	r3, #521	; 0x209
8780027a:	f44f 4200 	mov.w	r2, #32768	; 0x8000
8780027e:	4619      	mov	r1, r3
87800280:	6018      	str	r0, [r3, #0]
87800282:	601a      	str	r2, [r3, #0]
87800284:	680a      	ldr	r2, [r1, #0]
87800286:	f44f 4300 	mov.w	r3, #32768	; 0x8000
8780028a:	f2c0 2309 	movt	r3, #521	; 0x209
8780028e:	0412      	lsls	r2, r2, #16
87800290:	d4f8      	bmi.n	87800284 <delay_init+0x14>
87800292:	f04f 32ff 	mov.w	r2, #4294967295	; 0xffffffff
87800296:	2040      	movs	r0, #64	; 0x40
87800298:	2141      	movs	r1, #65	; 0x41
8780029a:	6018      	str	r0, [r3, #0]
8780029c:	6059      	str	r1, [r3, #4]
8780029e:	611a      	str	r2, [r3, #16]
878002a0:	681a      	ldr	r2, [r3, #0]
878002a2:	f042 0201 	orr.w	r2, r2, #1
878002a6:	601a      	str	r2, [r3, #0]
878002a8:	4770      	bx	lr
878002aa:	bf00      	nop

878002ac <delayus>:
878002ac:	f44f 4100 	mov.w	r1, #32768	; 0x8000
878002b0:	b470      	push	{r4, r5, r6}
878002b2:	f2c0 2109 	movt	r1, #521	; 0x209
878002b6:	2400      	movs	r4, #0
878002b8:	6a4a      	ldr	r2, [r1, #36]	; 0x24
878002ba:	43d6      	mvns	r6, r2
878002bc:	6a4b      	ldr	r3, [r1, #36]	; 0x24
878002be:	4293      	cmp	r3, r2
878002c0:	d0fc      	beq.n	878002bc <delayus+0x10>
878002c2:	429a      	cmp	r2, r3
878002c4:	eb06 0504 	add.w	r5, r6, r4
878002c8:	eba4 0402 	sub.w	r4, r4, r2
878002cc:	bf2c      	ite	cs
878002ce:	18ec      	addcs	r4, r5, r3
878002d0:	18e4      	addcc	r4, r4, r3
878002d2:	4284      	cmp	r4, r0
878002d4:	d3f2      	bcc.n	878002bc <delayus+0x10>
878002d6:	bc70      	pop	{r4, r5, r6}
878002d8:	4770      	bx	lr
878002da:	bf00      	nop

878002dc <delayms>:
878002dc:	b1c8      	cbz	r0, 87800312 <delayms+0x36>
878002de:	f44f 4100 	mov.w	r1, #32768	; 0x8000
878002e2:	b4f0      	push	{r4, r5, r6, r7}
878002e4:	f2c0 2109 	movt	r1, #521	; 0x209
878002e8:	2700      	movs	r7, #0
878002ea:	2400      	movs	r4, #0
878002ec:	6a4a      	ldr	r2, [r1, #36]	; 0x24
878002ee:	43d6      	mvns	r6, r2
878002f0:	6a4b      	ldr	r3, [r1, #36]	; 0x24
878002f2:	429a      	cmp	r2, r3
878002f4:	d0fc      	beq.n	878002f0 <delayms+0x14>
878002f6:	eb06 0504 	add.w	r5, r6, r4
878002fa:	eba4 0402 	sub.w	r4, r4, r2
878002fe:	bf34      	ite	cc
87800300:	18e4      	addcc	r4, r4, r3
87800302:	18ec      	addcs	r4, r5, r3
87800304:	f5b4 7f7a 	cmp.w	r4, #1000	; 0x3e8
87800308:	d3f2      	bcc.n	878002f0 <delayms+0x14>
8780030a:	3701      	adds	r7, #1
8780030c:	4287      	cmp	r7, r0
8780030e:	d1ec      	bne.n	878002ea <delayms+0xe>
87800310:	bcf0      	pop	{r4, r5, r6, r7}
87800312:	4770      	bx	lr

87800314 <beep_init>:
87800314:	210c      	movs	r1, #12
87800316:	2250      	movs	r2, #80	; 0x50
87800318:	f44f 4340 	mov.w	r3, #49152	; 0xc000
8780031c:	b410      	push	{r4}
8780031e:	f2c0 230a 	movt	r3, #522	; 0x20a
87800322:	2405      	movs	r4, #5
87800324:	f2c0 2229 	movt	r2, #553	; 0x229
87800328:	f2c0 2129 	movt	r1, #553	; 0x229
8780032c:	f241 00b0 	movw	r0, #4272	; 0x10b0
87800330:	600c      	str	r4, [r1, #0]
87800332:	6010      	str	r0, [r2, #0]
87800334:	685a      	ldr	r2, [r3, #4]
87800336:	f85d 4b04 	ldr.w	r4, [sp], #4
8780033a:	f042 0202 	orr.w	r2, r2, #2
8780033e:	605a      	str	r2, [r3, #4]
87800340:	681a      	ldr	r2, [r3, #0]
87800342:	f042 0202 	orr.w	r2, r2, #2
87800346:	601a      	str	r2, [r3, #0]
87800348:	4770      	bx	lr
8780034a:	bf00      	nop

8780034c <beep_switch>:
8780034c:	2801      	cmp	r0, #1
8780034e:	d009      	beq.n	87800364 <beep_switch+0x18>
87800350:	b938      	cbnz	r0, 87800362 <beep_switch+0x16>
87800352:	f44f 4340 	mov.w	r3, #49152	; 0xc000
87800356:	f2c0 230a 	movt	r3, #522	; 0x20a
8780035a:	681a      	ldr	r2, [r3, #0]
8780035c:	f042 0202 	orr.w	r2, r2, #2
87800360:	601a      	str	r2, [r3, #0]
87800362:	4770      	bx	lr
87800364:	f44f 4340 	mov.w	r3, #49152	; 0xc000
87800368:	f2c0 230a 	movt	r3, #522	; 0x20a
8780036c:	681a      	ldr	r2, [r3, #0]
8780036e:	f022 0202 	bic.w	r2, r2, #2
87800372:	601a      	str	r2, [r3, #0]
87800374:	4770      	bx	lr
87800376:	bf00      	nop

87800378 <gpio_pinread>:
87800378:	6800      	ldr	r0, [r0, #0]
8780037a:	40c8      	lsrs	r0, r1
8780037c:	f000 0001 	and.w	r0, r0, #1
87800380:	4770      	bx	lr
87800382:	bf00      	nop

87800384 <gpio_pinwrite>:
87800384:	2301      	movs	r3, #1
87800386:	b122      	cbz	r2, 87800392 <gpio_pinwrite+0xe>
87800388:	6802      	ldr	r2, [r0, #0]
8780038a:	408b      	lsls	r3, r1
8780038c:	4313      	orrs	r3, r2
8780038e:	6003      	str	r3, [r0, #0]
87800390:	4770      	bx	lr
87800392:	6802      	ldr	r2, [r0, #0]
87800394:	408b      	lsls	r3, r1
87800396:	ea22 0303 	bic.w	r3, r2, r3
8780039a:	6003      	str	r3, [r0, #0]
8780039c:	4770      	bx	lr
8780039e:	bf00      	nop

878003a0 <gpio_intconfig>:
878003a0:	b410      	push	{r4}
878003a2:	2401      	movs	r4, #1
878003a4:	69c3      	ldr	r3, [r0, #28]
878003a6:	408c      	lsls	r4, r1
878003a8:	290f      	cmp	r1, #15
878003aa:	f102 32ff 	add.w	r2, r2, #4294967295	; 0xffffffff
878003ae:	bf88      	it	hi
878003b0:	3910      	subhi	r1, #16
878003b2:	ea23 0304 	bic.w	r3, r3, r4
878003b6:	61c3      	str	r3, [r0, #28]
878003b8:	bf94      	ite	ls
878003ba:	f100 030c 	addls.w	r3, r0, #12
878003be:	f100 0310 	addhi.w	r3, r0, #16
878003c2:	2a04      	cmp	r2, #4
878003c4:	d80f      	bhi.n	878003e6 <gpio_intconfig+0x46>
878003c6:	e8df f002 	tbb	[pc, r2]
878003ca:	28230319 	stmdacs	r3!, {r0, r3, r4, r8, r9}
878003ce:	68180011 	ldmdavs	r8, {r0, r4}
878003d2:	0049      	lsls	r1, r1, #1
878003d4:	2403      	movs	r4, #3
878003d6:	2201      	movs	r2, #1
878003d8:	408c      	lsls	r4, r1
878003da:	fa02 f101 	lsl.w	r1, r2, r1
878003de:	ea20 0204 	bic.w	r2, r0, r4
878003e2:	430a      	orrs	r2, r1
878003e4:	601a      	str	r2, [r3, #0]
878003e6:	f85d 4b04 	ldr.w	r4, [sp], #4
878003ea:	4770      	bx	lr
878003ec:	69c2      	ldr	r2, [r0, #28]
878003ee:	2301      	movs	r3, #1
878003f0:	408b      	lsls	r3, r1
878003f2:	f85d 4b04 	ldr.w	r4, [sp], #4
878003f6:	4313      	orrs	r3, r2
878003f8:	61c3      	str	r3, [r0, #28]
878003fa:	4770      	bx	lr
878003fc:	0049      	lsls	r1, r1, #1
878003fe:	6818      	ldr	r0, [r3, #0]
87800400:	2203      	movs	r2, #3
87800402:	f85d 4b04 	ldr.w	r4, [sp], #4
87800406:	408a      	lsls	r2, r1
87800408:	ea20 0202 	bic.w	r2, r0, r2
8780040c:	601a      	str	r2, [r3, #0]
8780040e:	4770      	bx	lr
87800410:	0049      	lsls	r1, r1, #1
87800412:	2403      	movs	r4, #3
87800414:	6818      	ldr	r0, [r3, #0]
87800416:	2202      	movs	r2, #2
87800418:	e7de      	b.n	878003d8 <gpio_intconfig+0x38>
8780041a:	0049      	lsls	r1, r1, #1
8780041c:	6818      	ldr	r0, [r3, #0]
8780041e:	2203      	movs	r2, #3
87800420:	f85d 4b04 	ldr.w	r4, [sp], #4
87800424:	408a      	lsls	r2, r1
87800426:	4302      	orrs	r2, r0
87800428:	601a      	str	r2, [r3, #0]
8780042a:	4770      	bx	lr

8780042c <gpio_init>:
8780042c:	6813      	ldr	r3, [r2, #0]
8780042e:	b410      	push	{r4}
87800430:	b173      	cbz	r3, 87800450 <gpio_init+0x24>
87800432:	6844      	ldr	r4, [r0, #4]
87800434:	2301      	movs	r3, #1
87800436:	408b      	lsls	r3, r1
87800438:	431c      	orrs	r4, r3
8780043a:	6044      	str	r4, [r0, #4]
8780043c:	7914      	ldrb	r4, [r2, #4]
8780043e:	b194      	cbz	r4, 87800466 <gpio_init+0x3a>
87800440:	6804      	ldr	r4, [r0, #0]
87800442:	6892      	ldr	r2, [r2, #8]
87800444:	4323      	orrs	r3, r4
87800446:	f85d 4b04 	ldr.w	r4, [sp], #4
8780044a:	6003      	str	r3, [r0, #0]
8780044c:	f7ff bfa8 	b.w	878003a0 <gpio_intconfig>
87800450:	6844      	ldr	r4, [r0, #4]
87800452:	2301      	movs	r3, #1
87800454:	408b      	lsls	r3, r1
87800456:	6892      	ldr	r2, [r2, #8]
87800458:	ea24 0303 	bic.w	r3, r4, r3
8780045c:	f85d 4b04 	ldr.w	r4, [sp], #4
87800460:	6043      	str	r3, [r0, #4]
87800462:	f7ff bf9d 	b.w	878003a0 <gpio_intconfig>
87800466:	6804      	ldr	r4, [r0, #0]
87800468:	6892      	ldr	r2, [r2, #8]
8780046a:	ea24 0303 	bic.w	r3, r4, r3
8780046e:	f85d 4b04 	ldr.w	r4, [sp], #4
87800472:	6003      	str	r3, [r0, #0]
87800474:	f7ff bf94 	b.w	878003a0 <gpio_intconfig>

87800478 <gpio_enableint>:
87800478:	6943      	ldr	r3, [r0, #20]
8780047a:	2201      	movs	r2, #1
8780047c:	408a      	lsls	r2, r1
8780047e:	4313      	orrs	r3, r2
87800480:	6143      	str	r3, [r0, #20]
87800482:	4770      	bx	lr

87800484 <gpio_disableint>:
87800484:	6943      	ldr	r3, [r0, #20]
87800486:	2201      	movs	r2, #1
87800488:	408a      	lsls	r2, r1
8780048a:	ea23 0302 	bic.w	r3, r3, r2
8780048e:	6143      	str	r3, [r0, #20]
87800490:	4770      	bx	lr
87800492:	bf00      	nop

87800494 <gpio_clearintflags>:
87800494:	6983      	ldr	r3, [r0, #24]
87800496:	2201      	movs	r2, #1
87800498:	408a      	lsls	r2, r1
8780049a:	4313      	orrs	r3, r2
8780049c:	6183      	str	r3, [r0, #24]
8780049e:	4770      	bx	lr

878004a0 <key_init>:
878004a0:	b570      	push	{r4, r5, r6, lr}
878004a2:	218c      	movs	r1, #140	; 0x8c
878004a4:	b084      	sub	sp, #16
878004a6:	f44f 7346 	mov.w	r3, #792	; 0x318
878004aa:	f2c0 230e 	movt	r3, #526	; 0x20e
878004ae:	aa04      	add	r2, sp, #16
878004b0:	f2c0 210e 	movt	r1, #526	; 0x20e
878004b4:	2605      	movs	r6, #5
878004b6:	f24f 0580 	movw	r5, #61568	; 0xf080
878004ba:	2400      	movs	r4, #0
878004bc:	f44f 4040 	mov.w	r0, #49152	; 0xc000
878004c0:	600e      	str	r6, [r1, #0]
878004c2:	f2c0 2009 	movt	r0, #521	; 0x209
878004c6:	601d      	str	r5, [r3, #0]
878004c8:	2112      	movs	r1, #18
878004ca:	f842 4d0c 	str.w	r4, [r2, #-12]!
878004ce:	f7ff ffad 	bl	8780042c <gpio_init>
878004d2:	b004      	add	sp, #16
878004d4:	bd70      	pop	{r4, r5, r6, pc}
878004d6:	bf00      	nop

878004d8 <key_getvalue>:
878004d8:	b538      	push	{r3, r4, r5, lr}
878004da:	f640 04e8 	movw	r4, #2280	; 0x8e8
878004de:	f2c8 7480 	movt	r4, #34688	; 0x8780
878004e2:	7823      	ldrb	r3, [r4, #0]
878004e4:	2b01      	cmp	r3, #1
878004e6:	d00b      	beq.n	87800500 <key_getvalue+0x28>
878004e8:	f44f 4040 	mov.w	r0, #49152	; 0xc000
878004ec:	2112      	movs	r1, #18
878004ee:	f2c0 2009 	movt	r0, #521	; 0x209
878004f2:	f7ff ff41 	bl	87800378 <gpio_pinread>
878004f6:	2801      	cmp	r0, #1
878004f8:	bf08      	it	eq
878004fa:	7020      	strbeq	r0, [r4, #0]
878004fc:	2000      	movs	r0, #0
878004fe:	bd38      	pop	{r3, r4, r5, pc}
87800500:	f44f 4040 	mov.w	r0, #49152	; 0xc000
87800504:	2112      	movs	r1, #18
87800506:	f2c0 2009 	movt	r0, #521	; 0x209
8780050a:	f7ff ff35 	bl	87800378 <gpio_pinread>
8780050e:	4605      	mov	r5, r0
87800510:	2800      	cmp	r0, #0
87800512:	d1e9      	bne.n	878004e8 <key_getvalue+0x10>
87800514:	200a      	movs	r0, #10
87800516:	f7ff fec9 	bl	878002ac <delayus>
8780051a:	f44f 4040 	mov.w	r0, #49152	; 0xc000
8780051e:	2112      	movs	r1, #18
87800520:	f2c0 2009 	movt	r0, #521	; 0x209
87800524:	7025      	strb	r5, [r4, #0]
87800526:	f7ff ff27 	bl	87800378 <gpio_pinread>
8780052a:	fab0 f080 	clz	r0, r0
8780052e:	0940      	lsrs	r0, r0, #5
87800530:	bd38      	pop	{r3, r4, r5, pc}
87800532:	bf00      	nop

87800534 <default_irqhandler>:
87800534:	4770      	bx	lr
87800536:	bf00      	nop

87800538 <int_init>:
87800538:	b5f0      	push	{r4, r5, r6, r7, lr}
8780053a:	ee9f 4f10 	mrc	15, 4, r4, cr15, cr0, {0}
8780053e:	0c24      	lsrs	r4, r4, #16
87800540:	f241 0204 	movw	r2, #4100	; 0x1004
87800544:	2300      	movs	r3, #0
87800546:	0424      	lsls	r4, r4, #16
87800548:	f04f 30ff 	mov.w	r0, #4294967295	; 0xffffffff
8780054c:	58a1      	ldr	r1, [r4, r2]
8780054e:	f001 011f 	and.w	r1, r1, #31
87800552:	3101      	adds	r1, #1
87800554:	f503 628c 	add.w	r2, r3, #1120	; 0x460
87800558:	3301      	adds	r3, #1
8780055a:	4299      	cmp	r1, r3
8780055c:	f844 0022 	str.w	r0, [r4, r2, lsl #2]
87800560:	d1f8      	bne.n	87800554 <int_init+0x1c>
87800562:	f242 0604 	movw	r6, #8196	; 0x2004
87800566:	27f8      	movs	r7, #248	; 0xf8
87800568:	f640 03ec 	movw	r3, #2284	; 0x8ec
8780056c:	f240 5235 	movw	r2, #1333	; 0x535
87800570:	51a7      	str	r7, [r4, r6]
87800572:	2500      	movs	r5, #0
87800574:	f2c8 7380 	movt	r3, #34688	; 0x8780
87800578:	f242 0708 	movw	r7, #8200	; 0x2008
8780057c:	f04f 0e02 	mov.w	lr, #2
87800580:	f2c8 7280 	movt	r2, #34688	; 0x8780
87800584:	f844 e007 	str.w	lr, [r4, r7]
87800588:	f504 5680 	add.w	r6, r4, #4096	; 0x1000
8780058c:	f203 5004 	addw	r0, r3, #1284	; 0x504
87800590:	4629      	mov	r1, r5
87800592:	f843 5b04 	str.w	r5, [r3], #4
87800596:	f504 5400 	add.w	r4, r4, #8192	; 0x2000
8780059a:	2501      	movs	r5, #1
8780059c:	6035      	str	r5, [r6, #0]
8780059e:	6025      	str	r5, [r4, #0]
878005a0:	601a      	str	r2, [r3, #0]
878005a2:	3308      	adds	r3, #8
878005a4:	f843 1c04 	str.w	r1, [r3, #-4]
878005a8:	4283      	cmp	r3, r0
878005aa:	d1f9      	bne.n	878005a0 <int_init+0x68>
878005ac:	2300      	movs	r3, #0
878005ae:	f2c8 7380 	movt	r3, #34688	; 0x8780
878005b2:	ee0c 3f10 	mcr	15, 0, r3, cr12, cr0, {0}
878005b6:	bdf0      	pop	{r4, r5, r6, r7, pc}

878005b8 <system_irqtable_init>:
878005b8:	b410      	push	{r4}
878005ba:	f240 5235 	movw	r2, #1333	; 0x535
878005be:	2400      	movs	r4, #0
878005c0:	f640 03ec 	movw	r3, #2284	; 0x8ec
878005c4:	4621      	mov	r1, r4
878005c6:	f2c8 7280 	movt	r2, #34688	; 0x8780
878005ca:	f2c8 7380 	movt	r3, #34688	; 0x8780
878005ce:	f203 5004 	addw	r0, r3, #1284	; 0x504
878005d2:	f843 4b04 	str.w	r4, [r3], #4
878005d6:	601a      	str	r2, [r3, #0]
878005d8:	3308      	adds	r3, #8
878005da:	f843 1c04 	str.w	r1, [r3, #-4]
878005de:	4283      	cmp	r3, r0
878005e0:	d1f9      	bne.n	878005d6 <system_irqtable_init+0x1e>
878005e2:	f85d 4b04 	ldr.w	r4, [sp], #4
878005e6:	4770      	bx	lr

878005e8 <system_register_irqhandler>:
878005e8:	f640 03ec 	movw	r3, #2284	; 0x8ec
878005ec:	f2c8 7380 	movt	r3, #34688	; 0x8780
878005f0:	eb03 00c0 	add.w	r0, r3, r0, lsl #3
878005f4:	6041      	str	r1, [r0, #4]
878005f6:	6082      	str	r2, [r0, #8]
878005f8:	4770      	bx	lr
878005fa:	bf00      	nop

878005fc <system_irqhandler>:
878005fc:	b538      	push	{r3, r4, r5, lr}
878005fe:	f3c0 0309 	ubfx	r3, r0, #0, #10
87800602:	2b9f      	cmp	r3, #159	; 0x9f
87800604:	d80f      	bhi.n	87800626 <system_irqhandler+0x2a>
87800606:	f640 04ec 	movw	r4, #2284	; 0x8ec
8780060a:	4618      	mov	r0, r3
8780060c:	f2c8 7480 	movt	r4, #34688	; 0x8780
87800610:	6822      	ldr	r2, [r4, #0]
87800612:	eb04 03c3 	add.w	r3, r4, r3, lsl #3
87800616:	685d      	ldr	r5, [r3, #4]
87800618:	3201      	adds	r2, #1
8780061a:	6899      	ldr	r1, [r3, #8]
8780061c:	6022      	str	r2, [r4, #0]
8780061e:	47a8      	blx	r5
87800620:	6823      	ldr	r3, [r4, #0]
87800622:	3b01      	subs	r3, #1
87800624:	6023      	str	r3, [r4, #0]
87800626:	bd38      	pop	{r3, r4, r5, pc}

87800628 <gpio1_io18_irqhandler>:
87800628:	b508      	push	{r3, lr}
8780062a:	200a      	movs	r0, #10
8780062c:	f7ff fe3e 	bl	878002ac <delayus>
87800630:	f44f 4040 	mov.w	r0, #49152	; 0xc000
87800634:	2112      	movs	r1, #18
87800636:	f2c0 2009 	movt	r0, #521	; 0x209
8780063a:	f7ff fe9d 	bl	87800378 <gpio_pinread>
8780063e:	b958      	cbnz	r0, 87800658 <gpio1_io18_irqhandler+0x30>
87800640:	f640 52f0 	movw	r2, #3568	; 0xdf0
87800644:	f2c8 7280 	movt	r2, #34688	; 0x8780
87800648:	7813      	ldrb	r3, [r2, #0]
8780064a:	fab3 f383 	clz	r3, r3
8780064e:	095b      	lsrs	r3, r3, #5
87800650:	4618      	mov	r0, r3
87800652:	7013      	strb	r3, [r2, #0]
87800654:	f7ff fe7a 	bl	8780034c <beep_switch>
87800658:	f44f 4040 	mov.w	r0, #49152	; 0xc000
8780065c:	2112      	movs	r1, #18
8780065e:	f2c0 2009 	movt	r0, #521	; 0x209
87800662:	e8bd 4008 	ldmia.w	sp!, {r3, lr}
87800666:	f7ff bf15 	b.w	87800494 <gpio_clearintflags>
8780066a:	bf00      	nop

8780066c <exit_init>:
8780066c:	b570      	push	{r4, r5, r6, lr}
8780066e:	228c      	movs	r2, #140	; 0x8c
87800670:	f44f 7346 	mov.w	r3, #792	; 0x318
87800674:	f44f 4440 	mov.w	r4, #49152	; 0xc000
87800678:	b084      	sub	sp, #16
8780067a:	2604      	movs	r6, #4
8780067c:	f2c0 220e 	movt	r2, #526	; 0x20e
87800680:	2005      	movs	r0, #5
87800682:	f2c0 230e 	movt	r3, #526	; 0x20e
87800686:	f24f 0180 	movw	r1, #61568	; 0xf080
8780068a:	f2c0 2409 	movt	r4, #521	; 0x209
8780068e:	6010      	str	r0, [r2, #0]
87800690:	2500      	movs	r5, #0
87800692:	6019      	str	r1, [r3, #0]
87800694:	4620      	mov	r0, r4
87800696:	2301      	movs	r3, #1
87800698:	eb0d 0206 	add.w	r2, sp, r6
8780069c:	2112      	movs	r1, #18
8780069e:	9501      	str	r5, [sp, #4]
878006a0:	9603      	str	r6, [sp, #12]
878006a2:	f88d 3008 	strb.w	r3, [sp, #8]
878006a6:	f7ff fec1 	bl	8780042c <gpio_init>
878006aa:	ee9f 3f10 	mrc	15, 4, r3, cr15, cr0, {0}
878006ae:	0c1b      	lsrs	r3, r3, #16
878006b0:	f241 100c 	movw	r0, #4364	; 0x110c
878006b4:	2608      	movs	r6, #8
878006b6:	041b      	lsls	r3, r3, #16
878006b8:	f240 6129 	movw	r1, #1577	; 0x629
878006bc:	462a      	mov	r2, r5
878006be:	501e      	str	r6, [r3, r0]
878006c0:	f2c8 7180 	movt	r1, #34688	; 0x8780
878006c4:	2063      	movs	r0, #99	; 0x63
878006c6:	f7ff ff8f 	bl	878005e8 <system_register_irqhandler>
878006ca:	4620      	mov	r0, r4
878006cc:	2112      	movs	r1, #18
878006ce:	f7ff fed3 	bl	87800478 <gpio_enableint>
878006d2:	b004      	add	sp, #16
878006d4:	bd70      	pop	{r4, r5, r6, pc}
878006d6:	bf00      	nop

878006d8 <epit1_irqhandler>:
878006d8:	b508      	push	{r3, lr}
878006da:	2300      	movs	r3, #0
878006dc:	f2c0 230d 	movt	r3, #525	; 0x20d
878006e0:	685b      	ldr	r3, [r3, #4]
878006e2:	07db      	lsls	r3, r3, #31
878006e4:	d50c      	bpl.n	87800700 <epit1_irqhandler+0x28>
878006e6:	f640 52f4 	movw	r2, #3572	; 0xdf4
878006ea:	2000      	movs	r0, #0
878006ec:	f2c8 7280 	movt	r2, #34688	; 0x8780
878006f0:	6813      	ldr	r3, [r2, #0]
878006f2:	fab3 f383 	clz	r3, r3
878006f6:	095b      	lsrs	r3, r3, #5
878006f8:	4619      	mov	r1, r3
878006fa:	6013      	str	r3, [r2, #0]
878006fc:	f7ff fda2 	bl	87800244 <led_switch>
87800700:	2300      	movs	r3, #0
87800702:	f2c0 230d 	movt	r3, #525	; 0x20d
87800706:	685a      	ldr	r2, [r3, #4]
87800708:	f042 0201 	orr.w	r2, r2, #1
8780070c:	605a      	str	r2, [r3, #4]
8780070e:	bd08      	pop	{r3, pc}

87800710 <epit_init>:
87800710:	f5b0 5f80 	cmp.w	r0, #4096	; 0x1000
87800714:	b538      	push	{r3, r4, r5, lr}
87800716:	bf28      	it	cs
87800718:	f44f 5080 	movcs.w	r0, #4096	; 0x1000
8780071c:	2400      	movs	r4, #0
8780071e:	0100      	lsls	r0, r0, #4
87800720:	f2c0 240d 	movt	r4, #525	; 0x20d
87800724:	2200      	movs	r2, #0
87800726:	f040 7080 	orr.w	r0, r0, #16777216	; 0x1000000
8780072a:	6022      	str	r2, [r4, #0]
8780072c:	f040 000e 	orr.w	r0, r0, #14
87800730:	6020      	str	r0, [r4, #0]
87800732:	60a1      	str	r1, [r4, #8]
87800734:	60e2      	str	r2, [r4, #12]
87800736:	ee9f 3f10 	mrc	15, 4, r3, cr15, cr0, {0}
8780073a:	0c1b      	lsrs	r3, r3, #16
8780073c:	f241 1008 	movw	r0, #4360	; 0x1108
87800740:	f04f 7580 	mov.w	r5, #16777216	; 0x1000000
87800744:	041b      	lsls	r3, r3, #16
87800746:	f240 61d9 	movw	r1, #1753	; 0x6d9
8780074a:	f2c8 7180 	movt	r1, #34688	; 0x8780
8780074e:	501d      	str	r5, [r3, r0]
87800750:	2058      	movs	r0, #88	; 0x58
87800752:	f7ff ff49 	bl	878005e8 <system_register_irqhandler>
87800756:	6823      	ldr	r3, [r4, #0]
87800758:	f043 0301 	orr.w	r3, r3, #1
8780075c:	6023      	str	r3, [r4, #0]
8780075e:	bd38      	pop	{r3, r4, r5, pc}

87800760 <gpio1_16_31_irqhandler>:
87800760:	2300      	movs	r3, #0
87800762:	b410      	push	{r4}
87800764:	f2c0 230d 	movt	r3, #525	; 0x20d
87800768:	f44f 5491 	mov.w	r4, #4640	; 0x1220
8780076c:	f2c0 040a 	movt	r4, #10
87800770:	f44f 4040 	mov.w	r0, #49152	; 0xc000
87800774:	681a      	ldr	r2, [r3, #0]
87800776:	f2c0 2009 	movt	r0, #521	; 0x209
8780077a:	2112      	movs	r1, #18
8780077c:	f022 0201 	bic.w	r2, r2, #1
87800780:	601a      	str	r2, [r3, #0]
87800782:	609c      	str	r4, [r3, #8]
87800784:	681a      	ldr	r2, [r3, #0]
87800786:	f85d 4b04 	ldr.w	r4, [sp], #4
8780078a:	f042 0201 	orr.w	r2, r2, #1
8780078e:	601a      	str	r2, [r3, #0]
87800790:	f7ff be80 	b.w	87800494 <gpio_clearintflags>

87800794 <filtertimer_irqhandler>:
87800794:	b508      	push	{r3, lr}
87800796:	2300      	movs	r3, #0
87800798:	f2c0 230d 	movt	r3, #525	; 0x20d
8780079c:	685a      	ldr	r2, [r3, #4]
8780079e:	07d2      	lsls	r2, r2, #31
878007a0:	d407      	bmi.n	878007b2 <filtertimer_irqhandler+0x1e>
878007a2:	2300      	movs	r3, #0
878007a4:	f2c0 230d 	movt	r3, #525	; 0x20d
878007a8:	685a      	ldr	r2, [r3, #4]
878007aa:	f042 0201 	orr.w	r2, r2, #1
878007ae:	605a      	str	r2, [r3, #4]
878007b0:	bd08      	pop	{r3, pc}
878007b2:	681a      	ldr	r2, [r3, #0]
878007b4:	f44f 4040 	mov.w	r0, #49152	; 0xc000
878007b8:	f2c0 2009 	movt	r0, #521	; 0x209
878007bc:	2112      	movs	r1, #18
878007be:	f022 0201 	bic.w	r2, r2, #1
878007c2:	601a      	str	r2, [r3, #0]
878007c4:	f7ff fdd8 	bl	87800378 <gpio_pinread>
878007c8:	2800      	cmp	r0, #0
878007ca:	d1ea      	bne.n	878007a2 <filtertimer_irqhandler+0xe>
878007cc:	f640 52f8 	movw	r2, #3576	; 0xdf8
878007d0:	f2c8 7280 	movt	r2, #34688	; 0x8780
878007d4:	6813      	ldr	r3, [r2, #0]
878007d6:	fab3 f383 	clz	r3, r3
878007da:	095b      	lsrs	r3, r3, #5
878007dc:	4618      	mov	r0, r3
878007de:	6013      	str	r3, [r2, #0]
878007e0:	f7ff fdb4 	bl	8780034c <beep_switch>
878007e4:	e7dd      	b.n	878007a2 <filtertimer_irqhandler+0xe>
878007e6:	bf00      	nop

878007e8 <filtertimer_init>:
878007e8:	2300      	movs	r3, #0
878007ea:	210e      	movs	r1, #14
878007ec:	f2c0 230d 	movt	r3, #525	; 0x20d
878007f0:	2200      	movs	r2, #0
878007f2:	f2c0 1100 	movt	r1, #256	; 0x100
878007f6:	b410      	push	{r4}
878007f8:	601a      	str	r2, [r3, #0]
878007fa:	6019      	str	r1, [r3, #0]
878007fc:	6098      	str	r0, [r3, #8]
878007fe:	60da      	str	r2, [r3, #12]
87800800:	ee9f 3f10 	mrc	15, 4, r3, cr15, cr0, {0}
87800804:	0c1b      	lsrs	r3, r3, #16
87800806:	f241 1008 	movw	r0, #4360	; 0x1108
8780080a:	f04f 7480 	mov.w	r4, #16777216	; 0x1000000
8780080e:	041b      	lsls	r3, r3, #16
87800810:	f240 7195 	movw	r1, #1941	; 0x795
87800814:	f2c8 7180 	movt	r1, #34688	; 0x8780
87800818:	501c      	str	r4, [r3, r0]
8780081a:	2058      	movs	r0, #88	; 0x58
8780081c:	f85d 4b04 	ldr.w	r4, [sp], #4
87800820:	f7ff bee2 	b.w	878005e8 <system_register_irqhandler>

87800824 <keyfilter_init>:
87800824:	b508      	push	{r3, lr}
87800826:	f7ff fe3b 	bl	878004a0 <key_init>
8780082a:	ee9f 3f10 	mrc	15, 4, r3, cr15, cr0, {0}
8780082e:	0c1b      	lsrs	r3, r3, #16
87800830:	f241 120c 	movw	r2, #4364	; 0x110c
87800834:	2008      	movs	r0, #8
87800836:	041b      	lsls	r3, r3, #16
87800838:	f240 7161 	movw	r1, #1889	; 0x761
8780083c:	f2c8 7180 	movt	r1, #34688	; 0x8780
87800840:	5098      	str	r0, [r3, r2]
87800842:	2200      	movs	r2, #0
87800844:	2063      	movs	r0, #99	; 0x63
87800846:	f7ff fecf 	bl	878005e8 <system_register_irqhandler>
8780084a:	f44f 4040 	mov.w	r0, #49152	; 0xc000
8780084e:	2112      	movs	r1, #18
87800850:	f2c0 2009 	movt	r0, #521	; 0x209
87800854:	f7ff fe10 	bl	87800478 <gpio_enableint>
87800858:	f44f 5091 	mov.w	r0, #4640	; 0x1220
8780085c:	e8bd 4008 	ldmia.w	sp!, {r3, lr}
87800860:	f2c0 000a 	movt	r0, #10
87800864:	f7ff bfc0 	b.w	878007e8 <filtertimer_init>

87800868 <filtertimer_stop>:
87800868:	2300      	movs	r3, #0
8780086a:	f2c0 230d 	movt	r3, #525	; 0x20d
8780086e:	681a      	ldr	r2, [r3, #0]
87800870:	f022 0201 	bic.w	r2, r2, #1
87800874:	601a      	str	r2, [r3, #0]
87800876:	4770      	bx	lr

87800878 <filtertimer_restart>:
87800878:	2300      	movs	r3, #0
8780087a:	f2c0 230d 	movt	r3, #525	; 0x20d
8780087e:	681a      	ldr	r2, [r3, #0]
87800880:	f022 0201 	bic.w	r2, r2, #1
87800884:	601a      	str	r2, [r3, #0]
87800886:	6098      	str	r0, [r3, #8]
87800888:	681a      	ldr	r2, [r3, #0]
8780088a:	f042 0201 	orr.w	r2, r2, #1
8780088e:	601a      	str	r2, [r3, #0]
87800890:	4770      	bx	lr
87800892:	bf00      	nop
87800894:	0000      	movs	r0, r0
	...

87800898 <__main_from_arm>:
87800898:	e51ff004 	ldr	pc, [pc, #-4]	; 8780089c <__main_from_arm+0x4>
8780089c:	878008a1 	strhi	r0, [r0, r1, lsr #17]

Disassembly of section .text.startup:

878008a0 <main>:
878008a0:	b510      	push	{r4, lr}
878008a2:	2400      	movs	r4, #0
878008a4:	f7ff fe48 	bl	87800538 <int_init>
878008a8:	f7ff fc66 	bl	87800178 <clk_init>
878008ac:	f7ff fc54 	bl	87800158 <clk_enable>
878008b0:	f7ff fcac 	bl	8780020c <led_init>
878008b4:	f7ff fd2e 	bl	87800314 <beep_init>
878008b8:	f7ff fdf2 	bl	878004a0 <key_init>
878008bc:	f7ff fed6 	bl	8780066c <exit_init>
878008c0:	f648 2140 	movw	r1, #35392	; 0x8a40
878008c4:	4620      	mov	r0, r4
878008c6:	f2c0 11f7 	movt	r1, #503	; 0x1f7
878008ca:	f7ff ff21 	bl	87800710 <epit_init>
878008ce:	f7ff fccf 	bl	87800270 <delay_init>
878008d2:	f084 0401 	eor.w	r4, r4, #1
878008d6:	2000      	movs	r0, #0
878008d8:	4621      	mov	r1, r4
878008da:	f7ff fcb3 	bl	87800244 <led_switch>
878008de:	f44f 70fa 	mov.w	r0, #500	; 0x1f4
878008e2:	f7ff fcfb 	bl	878002dc <delayms>
878008e6:	e7f4      	b.n	878008d2 <main+0x32>

Disassembly of section .data:

878008e8 <release.8188>:
878008e8:	Address 0x00000000878008e8 is out of bounds.


Disassembly of section .bss:

878008ec <irqNesting>:
878008ec:	00000000 	andeq	r0, r0, r0

878008f0 <irqTable>:
	...

87800df0 <state.8206>:
87800df0:	00000000 	andeq	r0, r0, r0

87800df4 <status.8163>:
87800df4:	00000000 	andeq	r0, r0, r0

87800df8 <status.8229>:
87800df8:	00000000 	andeq	r0, r0, r0

Disassembly of section .comment:

00000000 <.comment>:
   0:	3a434347 	bcc	10d0d24 <_start-0x8672f2dc>
   4:	694c2820 	stmdbvs	ip, {r5, fp, sp}^
   8:	6f72616e 	svcvs	0x0072616e
   c:	43434720 	movtmi	r4, #14112	; 0x3720
  10:	392e3420 	stmdbcc	lr!, {r5, sl, ip, sp}
  14:	3130322d 	teqcc	r0, sp, lsr #4
  18:	31302e37 	teqcc	r0, r7, lsr lr
  1c:	2e342029 	cdpcs	0, 3, cr2, cr4, cr9, {1}
  20:	00342e39 	eorseq	r2, r4, r9, lsr lr

Disassembly of section .ARM.attributes:

00000000 <.ARM.attributes>:
   0:	00003041 	andeq	r3, r0, r1, asr #32
   4:	61656100 	cmnvs	r5, r0, lsl #2
   8:	01006962 	tsteq	r0, r2, ror #18
   c:	00000026 	andeq	r0, r0, r6, lsr #32
  10:	412d3705 	teqmi	sp, r5, lsl #14
  14:	070a0600 	streq	r0, [sl, -r0, lsl #12]
  18:	09010841 	stmdbeq	r1, {r0, r6, fp}
  1c:	12040a02 	andne	r0, r4, #8192	; 0x2000
  20:	15011404 	strne	r1, [r1, #-1028]	; 0x404
  24:	18031701 	stmdane	r3, {r0, r8, r9, sl, ip}
  28:	1b021a01 	blne	86834 <_start-0x877797cc>
  2c:	22011c03 	andcs	r1, r1, #768	; 0x300
  30:	Address 0x0000000000000030 is out of bounds.

